; Function Attrs: mustprogress nofree norecurse nosync nounwind willreturn memory(readwrite, inaccessiblemem: none) uwtable
define internal void @_ZL10_SCSUResetP10UConverter21UConverterResetChoice(ptr noundef captures(none) %0, i32 noundef %1) #1 {
  %3 = getelementptr inbounds nuw i8, ptr %0, i64 16
  %4 = load ptr, ptr %3, align 8, !tbaa !12
  %5 = icmp slt i32 %1, 2
  br i1 %5, label %6, label %.thread

6:                                                ; preds = %2
  tail call void @llvm.memcpy.p0.p0.i64(ptr noundef nonnull align 4 dereferenceable(32) %4, ptr noundef nonnull align 16 dereferenceable(32) @_ZL21initialDynamicOffsets, i64 32, i1 false)
  %7 = getelementptr inbounds nuw i8, ptr %4, i64 64
  store i8 1, ptr %7, align 4, !tbaa !19
  %8 = getelementptr inbounds nuw i8, ptr %4, i64 65
  %9 = getelementptr inbounds nuw i8, ptr %0, i64 64
  store i32 0, ptr %8, align 1
  store i8 0, ptr %9, align 8, !tbaa !20
  %.not = icmp eq i32 %1, 1
  br i1 %.not, label %18, label %.thread

.thread:                                          ; preds = %2, %6
  %10 = getelementptr inbounds nuw i8, ptr %4, i64 32
  tail call void @llvm.memcpy.p0.p0.i64(ptr noundef nonnull align 4 dereferenceable(32) %10, ptr noundef nonnull align 16 dereferenceable(32) @_ZL21initialDynamicOffsets, i64 32, i1 false)
  %11 = getelementptr inbounds nuw i8, ptr %4, i64 72
  store i8 1, ptr %11, align 4, !tbaa !21
  %12 = getelementptr inbounds nuw i8, ptr %4, i64 73
  store i8 0, ptr %12, align 1, !tbaa !22
  %13 = getelementptr inbounds nuw i8, ptr %4, i64 75
  store i8 0, ptr %13, align 1, !tbaa !23
  %14 = getelementptr inbounds nuw i8, ptr %4, i64 74
  %15 = load i8, ptr %14, align 2, !tbaa !17
  %cond = icmp eq i8 %15, 1
  %spec.select = select i1 %cond, i64 433760635709555203, i64 73751958669950983
  %16 = getelementptr inbounds nuw i8, ptr %4, i64 76
  store i64 %spec.select, ptr %16, align 4
  %17 = getelementptr inbounds nuw i8, ptr %0, i64 84
  store i32 0, ptr %17, align 4, !tbaa !24
  br label %18

18:                                               ; preds = %.thread, %6
  ret void
}